; Function Attrs: mustprogress uwtable
define noundef zeroext i1 @_ZNK32pxrInternal_v0_24__pxrReserved__7UsdPrim8ApplyAPIERKNS_7TfTokenE(ptr noundef nonnull align 8 dereferenceable(32) %0, ptr noundef nonnull align 8 dereferenceable(8) %1) local_unnamed_addr #0 align 2 {
  %3 = tail call noundef ptr @_ZN32pxrInternal_v0_24__pxrReserved__17UsdSchemaRegistry14FindSchemaInfoERKNS_7TfTokenE(ptr noundef nonnull align 8 dereferenceable(8) %1)
  %.not = icmp eq ptr %3, null
  br i1 %.not, label %6, label %4

4:                                                ; preds = %2
  %5 = tail call noundef zeroext i1 @_ZNK32pxrInternal_v0_24__pxrReserved__7UsdPrim20_ApplySingleApplyAPIERKNS_17UsdSchemaRegistry10SchemaInfoE(ptr noundef nonnull align 8 dereferenceable(32) %0, ptr noundef nonnull align 8 dereferenceable(32) %3)
  br label %7

6:                                                ; preds = %2
  %.val = load ptr, ptr %1, align 8
  tail call fastcc void @_ZN32pxrInternal_v0_24__pxrReserved__L25_ReportInvalidSchemaErrorEPKcRKNS_7TfTokenEPNSt7__cxx1112basic_stringIcSt11char_traitsIcESaIcEEE(ptr noundef nonnull @.str.6, ptr %.val, ptr noundef null)
  br label %7

7:                                                ; preds = %6, %4
  %.0 = phi i1 [ %5, %4 ], [ false, %6 ]
  ret i1 %.0
}